; Function Attrs: nounwind uwtable
define internal fastcc ptr @get_dh_from_pg(ptr noundef %0, ptr noundef %1, ptr noundef %2, i64 noundef range(i64 64, 129) %3, ptr noundef %4, i64 noundef range(i64 1, 129) %5, ptr noundef %6, i64 noundef range(i64 0, 22) %7) unnamed_addr #0 {
  %9 = trunc nuw nsw i64 %3 to i32
  %10 = tail call ptr @BN_bin2bn(ptr noundef %2, i32 noundef %9, ptr noundef null) #3
  %11 = trunc nuw nsw i64 %5 to i32
  %12 = tail call ptr @BN_bin2bn(ptr noundef %4, i32 noundef %11, ptr noundef null) #3
  %13 = icmp eq ptr %10, null
  %14 = icmp eq ptr %12, null
  %or.cond = select i1 %13, i1 true, i1 %14
  br i1 %or.cond, label %22, label %15

15:                                               ; preds = %8
  %.not = icmp eq ptr %6, null
  br i1 %.not, label %20, label %16

16:                                               ; preds = %15
  %17 = trunc nuw nsw i64 %7 to i32
  %18 = tail call ptr @BN_bin2bn(ptr noundef nonnull %6, i32 noundef %17, ptr noundef null) #3
  %19 = icmp eq ptr %18, null
  br i1 %19, label %22, label %20

20:                                               ; preds = %16, %15
  %.1 = phi ptr [ %18, %16 ], [ null, %15 ]
  %21 = tail call fastcc ptr @get_dh_from_pg_bn(ptr noundef %0, ptr noundef %1, ptr noundef %10, ptr noundef %12, ptr noundef %.1)
  br label %22

22:                                               ; preds = %16, %8, %20
  %.018 = phi ptr [ null, %8 ], [ null, %16 ], [ %21, %20 ]
  %.0 = phi ptr [ null, %8 ], [ null, %16 ], [ %.1, %20 ]
  tail call void @BN_free(ptr noundef %10) #3
  tail call void @BN_free(ptr noundef %12) #3
  tail call void @BN_free(ptr noundef %.0) #3
  ret ptr %.018
}